target datalayout = "e-m:e-p270:32:32-p271:32:32-p272:64:64-i64:64-i128:128-f80:128-n8:16:32:64-S128"
target triple = "x86_64-pc-linux-gnu"

%class.SampleList = type { %class.JfrDoublyLinkedList, %class.JfrDoublyLinkedList, ptr, i64, i64, i64 }
%class.JfrDoublyLinkedList = type { ptr, ptr, i64 }
%class.ObjectSample = type <{ ptr, ptr, %class.RefCountHandle, %class.RefCountHandle, %class.RefCountHandle, %class.WeakHandle, %class.TimeInstant, i64, i64, i64, i64, i64, i64, i32, i8, [3 x i8] }>
%class.RefCountHandle = type { ptr }
%class.WeakHandle = type { ptr }
%class.TimeInstant = type { %class.CompositeCounterRepresentation }
%class.CompositeCounterRepresentation = type { %class.Representation }
%class.Representation = type { %class.PairRep }
%class.PairRep = type { i64, i64 }

; Function Attrs: mustprogress nounwind uwtable
define linkonce_odr hidden void @_ZN12ObjectSample8set_nextEPS_(ptr noundef nonnull align 8 dereferenceable(117) %0, ptr noundef %1) #1 comdat align 2 {
  %3 = alloca ptr, align 8
  %4 = alloca ptr, align 8
  store ptr %0, ptr %3, align 8
  store ptr %1, ptr %4, align 8
  %5 = load ptr, ptr %3, align 8
  %6 = load ptr, ptr %4, align 8
  %7 = getelementptr inbounds %class.ObjectSample, ptr %5, i32 0, i32 0
  store ptr %6, ptr %7, align 8
  ret void
}

; Function Attrs: mustprogress nounwind uwtable
define linkonce_odr hidden noundef ptr @_ZN19JfrDoublyLinkedListI12ObjectSampleE9list_headEv(ptr noundef nonnull align 8 dereferenceable(24) %0) #1 comdat align 2 {
  %2 = alloca ptr, align 8
  store ptr %0, ptr %2, align 8
  %3 = load ptr, ptr %2, align 8
  %4 = getelementptr inbounds %class.JfrDoublyLinkedList, ptr %3, i32 0, i32 0
  ret ptr %4
}

; Function Attrs: mustprogress nounwind uwtable
define linkonce_odr hidden noundef ptr @_ZN19JfrDoublyLinkedListI12ObjectSampleE9list_tailEv(ptr noundef nonnull align 8 dereferenceable(24) %0) #1 comdat align 2 {
  %2 = alloca ptr, align 8
  store ptr %0, ptr %2, align 8
  %3 = load ptr, ptr %2, align 8
  %4 = getelementptr inbounds %class.JfrDoublyLinkedList, ptr %3, i32 0, i32 1
  ret ptr %4
}

; Function Attrs: mustprogress nounwind uwtable
define linkonce_odr hidden void @_ZN12ObjectSample8set_prevEPS_(ptr noundef nonnull align 8 dereferenceable(117) %0, ptr noundef %1) #1 comdat align 2 {
  %3 = alloca ptr, align 8
  %4 = alloca ptr, align 8
  store ptr %0, ptr %3, align 8
  store ptr %1, ptr %4, align 8
  %5 = load ptr, ptr %3, align 8
  %6 = load ptr, ptr %4, align 8
  %7 = getelementptr inbounds %class.ObjectSample, ptr %5, i32 0, i32 1
  store ptr %6, ptr %7, align 8
  ret void
}

; Function Attrs: mustprogress nounwind uwtable
define linkonce_odr hidden noundef ptr @_ZNK12ObjectSample4prevEv(ptr noundef nonnull align 8 dereferenceable(117) %0) #1 comdat align 2 {
  %2 = alloca ptr, align 8
  store ptr %0, ptr %2, align 8
  %3 = load ptr, ptr %2, align 8
  %4 = getelementptr inbounds %class.ObjectSample, ptr %3, i32 0, i32 1
  %5 = load ptr, ptr %4, align 8
  ret ptr %5
}

; Function Attrs: mustprogress nounwind uwtable
define hidden void @_ZN10SampleList5resetEP12ObjectSample(ptr noundef nonnull align 8 dereferenceable(80) %0, ptr noundef %1) #1 align 2 {
  %3 = alloca ptr, align 8
  %4 = alloca ptr, align 8
  store ptr %0, ptr %3, align 8
  store ptr %1, ptr %4, align 8
  %5 = load ptr, ptr %4, align 8
  call void @_ZN12ObjectSample5resetEv(ptr noundef nonnull align 8 dereferenceable(117) %5)
  ret void
}

; Function Attrs: mustprogress nounwind uwtable
define linkonce_odr hidden noundef ptr @_ZN19JfrDoublyLinkedListI12ObjectSampleE6removeEPS0_(ptr noundef nonnull align 8 dereferenceable(24) %0, ptr noundef %1) #1 comdat align 2 {
  %3 = alloca ptr, align 8
  %4 = alloca ptr, align 8
  %5 = alloca ptr, align 8
  %6 = alloca ptr, align 8
  %7 = alloca ptr, align 8
  %8 = alloca ptr, align 8
  %9 = alloca ptr, align 8
  store ptr %0, ptr %3, align 8
  store ptr %1, ptr %4, align 8
  %10 = load ptr, ptr %3, align 8
  %11 = load ptr, ptr %4, align 8
  %12 = call noundef ptr @_ZNK12ObjectSample4prevEv(ptr noundef nonnull align 8 dereferenceable(117) %11)
  store ptr %12, ptr %5, align 8
  %13 = load ptr, ptr %4, align 8
  %14 = call noundef ptr @_ZNK12ObjectSample4nextEv(ptr noundef nonnull align 8 dereferenceable(117) %13)
  store ptr %14, ptr %6, align 8
  %15 = load ptr, ptr %5, align 8
  %16 = icmp eq ptr %15, null
  br i1 %16, label %17, label %29

17:                                               ; preds = %2
  %18 = load ptr, ptr %6, align 8
  %19 = icmp ne ptr %18, null
  br i1 %19, label %20, label %22

20:                                               ; preds = %17
  %21 = load ptr, ptr %6, align 8
  call void @_ZN12ObjectSample8set_prevEPS_(ptr noundef nonnull align 8 dereferenceable(117) %21, ptr noundef null)
  br label %25

22:                                               ; preds = %17
  %23 = call noundef ptr @_ZN19JfrDoublyLinkedListI12ObjectSampleE9list_tailEv(ptr noundef nonnull align 8 dereferenceable(24) %10)
  store ptr %23, ptr %7, align 8
  %24 = load ptr, ptr %7, align 8
  store ptr null, ptr %24, align 8
  br label %25

25:                                               ; preds = %22, %20
  %26 = call noundef ptr @_ZN19JfrDoublyLinkedListI12ObjectSampleE9list_headEv(ptr noundef nonnull align 8 dereferenceable(24) %10)
  store ptr %26, ptr %8, align 8
  %27 = load ptr, ptr %6, align 8
  %28 = load ptr, ptr %8, align 8
  store ptr %27, ptr %28, align 8
  br label %42

29:                                               ; preds = %2
  %30 = load ptr, ptr %6, align 8
  %31 = icmp eq ptr %30, null
  br i1 %31, label %32, label %36

32:                                               ; preds = %29
  %33 = call noundef ptr @_ZN19JfrDoublyLinkedListI12ObjectSampleE9list_tailEv(ptr noundef nonnull align 8 dereferenceable(24) %10)
  store ptr %33, ptr %9, align 8
  %34 = load ptr, ptr %5, align 8
  %35 = load ptr, ptr %9, align 8
  store ptr %34, ptr %35, align 8
  br label %39

36:                                               ; preds = %29
  %37 = load ptr, ptr %6, align 8
  %38 = load ptr, ptr %5, align 8
  call void @_ZN12ObjectSample8set_prevEPS_(ptr noundef nonnull align 8 dereferenceable(117) %37, ptr noundef %38)
  br label %39

39:                                               ; preds = %36, %32
  %40 = load ptr, ptr %5, align 8
  %41 = load ptr, ptr %6, align 8
  call void @_ZN12ObjectSample8set_nextEPS_(ptr noundef nonnull align 8 dereferenceable(117) %40, ptr noundef %41)
  br label %42

42:                                               ; preds = %39, %25
  %43 = getelementptr inbounds %class.JfrDoublyLinkedList, ptr %10, i32 0, i32 2
  %44 = load i64, ptr %43, align 8
  %45 = add i64 %44, -1
  store i64 %45, ptr %43, align 8
  %46 = load ptr, ptr %4, align 8
  ret ptr %46
}

; Function Attrs: mustprogress nounwind uwtable
define linkonce_odr hidden noundef ptr @_ZNK12ObjectSample4nextEv(ptr noundef nonnull align 8 dereferenceable(117) %0) #1 comdat align 2 {
  %2 = alloca ptr, align 8
  store ptr %0, ptr %2, align 8
  %3 = load ptr, ptr %2, align 8
  %4 = getelementptr inbounds %class.ObjectSample, ptr %3, i32 0, i32 0
  %5 = load ptr, ptr %4, align 8
  ret ptr %5
}

; Function Attrs: mustprogress nounwind uwtable
define hidden void @_ZN10SampleList6unlinkEP12ObjectSample(ptr noundef nonnull align 8 dereferenceable(80) %0, ptr noundef %1) #1 align 2 {
  %3 = alloca ptr, align 8
  %4 = alloca ptr, align 8
  store ptr %0, ptr %3, align 8
  store ptr %1, ptr %4, align 8
  %5 = load ptr, ptr %3, align 8
  %6 = getelementptr inbounds %class.SampleList, ptr %5, i32 0, i32 2
  %7 = load ptr, ptr %6, align 8
  %8 = load ptr, ptr %4, align 8
  %9 = icmp eq ptr %7, %8
  br i1 %9, label %10, label %14

10:                                               ; preds = %2
  %11 = load ptr, ptr %4, align 8
  %12 = call noundef ptr @_ZNK12ObjectSample4nextEv(ptr noundef nonnull align 8 dereferenceable(117) %11)
  %13 = getelementptr inbounds %class.SampleList, ptr %5, i32 0, i32 2
  store ptr %12, ptr %13, align 8
  br label %14

14:                                               ; preds = %10, %2
  %15 = getelementptr inbounds %class.SampleList, ptr %5, i32 0, i32 1
  %16 = load ptr, ptr %4, align 8
  %17 = call noundef ptr @_ZN19JfrDoublyLinkedListI12ObjectSampleE6removeEPS0_(ptr noundef nonnull align 8 dereferenceable(24) %15, ptr noundef %16)
  call void @_ZN10SampleList5resetEP12ObjectSample(ptr noundef nonnull align 8 dereferenceable(80) %5, ptr noundef %17)
  ret void
}