; Function Attrs: mustprogress nounwind uwtable
define hidden void @_ZN10SampleList6unlinkEP12ObjectSample(ptr nocapture noundef nonnull align 8 dereferenceable(80) %0, ptr noundef %1) local_unnamed_addr #1 align 2 {
  %3 = getelementptr inbounds i8, ptr %0, i64 48
  %4 = load ptr, ptr %3, align 8
  %5 = icmp eq ptr %4, %1
  %.pre = load ptr, ptr %1, align 8
  br i1 %5, label %6, label %7

6:                                                ; preds = %2
  store ptr %.pre, ptr %3, align 8
  br label %7

7:                                                ; preds = %6, %2
  %8 = getelementptr inbounds i8, ptr %1, i64 8
  %9 = load ptr, ptr %8, align 8
  %10 = icmp eq ptr %9, null
  %.not.i = icmp eq ptr %.pre, null
  br i1 %10, label %11, label %14

11:                                               ; preds = %7
  %12 = getelementptr inbounds i8, ptr %0, i64 24
  %..i = select i1 %.not.i, ptr %12, ptr %.pre
  %13 = getelementptr inbounds i8, ptr %..i, i64 8
  store ptr null, ptr %13, align 8
  store ptr %.pre, ptr %12, align 8
  br label %_ZN19JfrDoublyLinkedListI12ObjectSampleE6removeEPS0_.exit

14:                                               ; preds = %7
  br i1 %.not.i, label %.split.i, label %.split18.i

.split.i:                                         ; preds = %14
  %15 = getelementptr inbounds i8, ptr %0, i64 32
  store ptr %9, ptr %15, align 8
  store ptr null, ptr %9, align 8
  br label %_ZN19JfrDoublyLinkedListI12ObjectSampleE6removeEPS0_.exit

.split18.i:                                       ; preds = %14
  %16 = getelementptr inbounds i8, ptr %.pre, i64 8
  store ptr %9, ptr %16, align 8
  store ptr %.pre, ptr %9, align 8
  br label %_ZN19JfrDoublyLinkedListI12ObjectSampleE6removeEPS0_.exit

_ZN19JfrDoublyLinkedListI12ObjectSampleE6removeEPS0_.exit: ; preds = %11, %.split.i, %.split18.i
  %17 = getelementptr inbounds i8, ptr %0, i64 40
  %18 = load i64, ptr %17, align 8
  %19 = add i64 %18, -1
  store i64 %19, ptr %17, align 8
  tail call void @_ZN12ObjectSample5resetEv(ptr noundef nonnull align 8 dereferenceable(117) %1) #8
  ret void
}